; Function Attrs: mustprogress nofree norecurse nounwind willreturn memory(readwrite, argmem: none, inaccessiblemem: none) uwtable
define hidden zeroext i1 @extent_in_dss(ptr noundef readnone %addr) local_unnamed_addr #0 {
entry:
  %0 = load atomic i64, ptr @dss_max.0 acquire, align 8
  %1 = inttoptr i64 %0 to ptr
  %2 = load ptr, ptr @dss_base, align 8
  %cmp.i = icmp ule ptr %2, %addr
  %cmp1.i = icmp ugt ptr %1, %addr
  %3 = and i1 %cmp1.i, %cmp.i
  ret i1 %3
}